; Function Attrs: nounwind uwtable
define zeroext range(i8 0, 2) i8 @l_Std_DHashMap_Internal_AssocList_contains___at___private_Lean_Meta_Tactic_Grind_ProveEq_0__Lean_Meta_Grind_abstractGroundMismatches_x3f_go___spec__1(ptr noundef readonly captures(none) %0, ptr noundef %1) local_unnamed_addr #1 {
  %3 = getelementptr inbounds nuw i8, ptr %0, i64 8
  %4 = getelementptr inbounds nuw i8, ptr %0, i64 16
  br label %.backedge

.backedge:                                        ; preds = %.backedge.backedge, %2
  %.018 = phi ptr [ %1, %2 ], [ %18, %.backedge.backedge ]
  %5 = ptrtoint ptr %.018 to i64
  %6 = and i64 %5, 1
  %.not.i = icmp eq i64 %6, 0
  br i1 %.not.i, label %10, label %7

7:                                                ; preds = %.backedge
  %8 = lshr i64 %5, 1
  %9 = trunc i64 %8 to i32
  br label %lean_obj_tag.exit

10:                                               ; preds = %.backedge
  %11 = getelementptr i8, ptr %.018, i64 4
  %.val.i = load i32, ptr %11, align 4
  %12 = lshr i32 %.val.i, 24
  br label %lean_obj_tag.exit

lean_obj_tag.exit:                                ; preds = %7, %10
  %.0.i = phi i32 [ %9, %7 ], [ %12, %10 ]
  %13 = icmp eq i32 %.0.i, 0
  br i1 %13, label %29, label %14

14:                                               ; preds = %lean_obj_tag.exit
  %15 = getelementptr inbounds nuw i8, ptr %.018, i64 8
  %16 = load ptr, ptr %15, align 8, !tbaa !4
  %17 = getelementptr inbounds nuw i8, ptr %.018, i64 24
  %18 = load ptr, ptr %17, align 8, !tbaa !4
  %19 = getelementptr inbounds nuw i8, ptr %16, i64 8
  %20 = load ptr, ptr %19, align 8, !tbaa !4
  %21 = getelementptr inbounds nuw i8, ptr %16, i64 16
  %22 = load ptr, ptr %21, align 8, !tbaa !4
  %23 = load ptr, ptr %3, align 8, !tbaa !4
  %24 = load ptr, ptr %4, align 8, !tbaa !4
  %25 = tail call zeroext i8 @lean_expr_eqv(ptr noundef %20, ptr noundef %23) #4
  %26 = icmp eq i8 %25, 0
  br i1 %26, label %.backedge.backedge, label %27

.backedge.backedge:                               ; preds = %14, %27
  br label %.backedge

27:                                               ; preds = %14
  %28 = tail call zeroext i8 @lean_expr_eqv(ptr noundef %22, ptr noundef %24) #4
  %.not = icmp eq i8 %28, 0
  br i1 %.not, label %.backedge.backedge, label %29

29:                                               ; preds = %27, %lean_obj_tag.exit
  %.1 = phi i8 [ 0, %lean_obj_tag.exit ], [ 1, %27 ]
  ret i8 %.1
}